target datalayout = "e-m:e-p270:32:32-p271:32:32-p272:64:64-i64:64-i128:128-f80:128-n8:16:32:64-S128"
target triple = "x86_64-pc-linux-gnu"

@libctx = internal global ptr null, align 8
@.str.24 = private unnamed_addr constant [34 x i8] c"../openssl/test/evp_libctx_test.c\00", align 1
@.str.34 = private unnamed_addr constant [2 x i8] c"0\00", align 1
@.str.50 = private unnamed_addr constant [2 x i8] c"1\00", align 1
@.str.85 = private unnamed_addr constant [30 x i8] c"rsa_keygen(bits, &pub, &priv)\00", align 1
@.str.86 = private unnamed_addr constant [53 x i8] c"sctx = EVP_PKEY_CTX_new_from_pkey(libctx, pub, NULL)\00", align 1
@.str.87 = private unnamed_addr constant [38 x i8] c"EVP_PKEY_encapsulate_init(sctx, NULL)\00", align 1
@.str.88 = private unnamed_addr constant [40 x i8] c"EVP_PKEY_CTX_set_kem_op(sctx, \22RSASVE\22)\00", align 1
@.str.89 = private unnamed_addr constant [7 x i8] c"RSASVE\00", align 1
@.str.90 = private unnamed_addr constant [30 x i8] c"dctx = EVP_PKEY_CTX_dup(sctx)\00", align 1
@.str.91 = private unnamed_addr constant [51 x i8] c"EVP_PKEY_encapsulate(dctx, NULL, NULL, NULL, NULL)\00", align 1
@.str.92 = private unnamed_addr constant [59 x i8] c"EVP_PKEY_encapsulate(dctx, NULL, &ctlen, NULL, &secretlen)\00", align 1
@.str.93 = private unnamed_addr constant [6 x i8] c"ctlen\00", align 1
@.str.94 = private unnamed_addr constant [10 x i8] c"secretlen\00", align 1
@.str.95 = private unnamed_addr constant [9 x i8] c"bits / 8\00", align 1
@.str.96 = private unnamed_addr constant [59 x i8] c"EVP_PKEY_encapsulate(dctx, ct, &ctlen, secret, &secretlen)\00", align 1
@.str.97 = private unnamed_addr constant [54 x i8] c"rctx = EVP_PKEY_CTX_new_from_pkey(libctx, priv, NULL)\00", align 1
@.str.98 = private unnamed_addr constant [38 x i8] c"EVP_PKEY_decapsulate_init(rctx, NULL)\00", align 1
@.str.99 = private unnamed_addr constant [40 x i8] c"EVP_PKEY_CTX_set_kem_op(rctx, \22RSASVE\22)\00", align 1
@.str.100 = private unnamed_addr constant [50 x i8] c"EVP_PKEY_decapsulate(rctx, NULL, NULL, ct, ctlen)\00", align 1
@.str.101 = private unnamed_addr constant [56 x i8] c"EVP_PKEY_decapsulate(rctx, NULL, &unwraplen, ct, ctlen)\00", align 1
@.str.102 = private unnamed_addr constant [58 x i8] c"EVP_PKEY_decapsulate(rctx, unwrap, &unwraplen, ct, ctlen)\00", align 1
@.str.103 = private unnamed_addr constant [7 x i8] c"unwrap\00", align 1
@.str.104 = private unnamed_addr constant [7 x i8] c"secret\00", align 1
@.str.105 = private unnamed_addr constant [8 x i8] c">=3.4.0\00", align 1

; Function Attrs: nounwind uwtable
define internal i32 @kem_rsa_gen_recover() #0 {
  %1 = alloca i32, align 4
  %2 = alloca ptr, align 8
  %3 = alloca ptr, align 8
  %4 = alloca ptr, align 8
  %5 = alloca ptr, align 8
  %6 = alloca ptr, align 8
  %7 = alloca [256 x i8], align 16
  %8 = alloca [256 x i8], align 16
  %9 = alloca [256 x i8], align 16
  %10 = alloca i64, align 8
  %11 = alloca i64, align 8
  %12 = alloca i64, align 8
  %13 = alloca i32, align 4
  call void @llvm.lifetime.start.p0(i64 4, ptr %1) #7
  store i32 0, ptr %1, align 4, !tbaa !9
  call void @llvm.lifetime.start.p0(i64 8, ptr %2) #7
  store ptr null, ptr %2, align 8, !tbaa !21
  call void @llvm.lifetime.start.p0(i64 8, ptr %3) #7
  store ptr null, ptr %3, align 8, !tbaa !21
  call void @llvm.lifetime.start.p0(i64 8, ptr %4) #7
  store ptr null, ptr %4, align 8, !tbaa !19
  call void @llvm.lifetime.start.p0(i64 8, ptr %5) #7
  store ptr null, ptr %5, align 8, !tbaa !19
  call void @llvm.lifetime.start.p0(i64 8, ptr %6) #7
  store ptr null, ptr %6, align 8, !tbaa !19
  call void @llvm.lifetime.start.p0(i64 256, ptr %7) #7
  call void @llvm.memset.p0.i64(ptr align 16 %7, i8 0, i64 256, i1 false)
  call void @llvm.lifetime.start.p0(i64 256, ptr %8) #7
  call void @llvm.memset.p0.i64(ptr align 16 %8, i8 0, i64 256, i1 false)
  call void @llvm.lifetime.start.p0(i64 256, ptr %9) #7
  call void @llvm.memset.p0.i64(ptr align 16 %9, i8 0, i64 256, i1 false)
  call void @llvm.lifetime.start.p0(i64 8, ptr %10) #7
  store i64 0, ptr %10, align 8, !tbaa !36
  call void @llvm.lifetime.start.p0(i64 8, ptr %11) #7
  store i64 0, ptr %11, align 8, !tbaa !36
  call void @llvm.lifetime.start.p0(i64 8, ptr %12) #7
  store i64 0, ptr %12, align 8, !tbaa !36
  call void @llvm.lifetime.start.p0(i64 4, ptr %13) #7
  store i32 2048, ptr %13, align 4, !tbaa !9
  %14 = load i32, ptr %13, align 4, !tbaa !9
  %15 = call i32 @rsa_keygen(i32 noundef %14, ptr noundef %2, ptr noundef %3)
  %16 = icmp ne i32 %15, 0
  %17 = zext i1 %16 to i32
  %18 = call i32 @test_true(ptr noundef @.str.24, i32 noundef 582, ptr noundef @.str.85, i32 noundef %17)
  %19 = icmp ne i32 %18, 0
  br i1 %19, label %20, label %117

20:                                               ; preds = %0
  %21 = load ptr, ptr @libctx, align 8, !tbaa !13
  %22 = load ptr, ptr %2, align 8, !tbaa !21
  %23 = call ptr @EVP_PKEY_CTX_new_from_pkey(ptr noundef %21, ptr noundef %22, ptr noundef null)
  store ptr %23, ptr %4, align 8, !tbaa !19
  %24 = call i32 @test_ptr(ptr noundef @.str.24, i32 noundef 583, ptr noundef @.str.86, ptr noundef %23)
  %25 = icmp ne i32 %24, 0
  br i1 %25, label %26, label %117

26:                                               ; preds = %20
  %27 = load ptr, ptr %4, align 8, !tbaa !19
  %28 = call i32 @EVP_PKEY_encapsulate_init(ptr noundef %27, ptr noundef null)
  %29 = call i32 @test_int_eq(ptr noundef @.str.24, i32 noundef 584, ptr noundef @.str.87, ptr noundef @.str.50, i32 noundef %28, i32 noundef 1)
  %30 = icmp ne i32 %29, 0
  br i1 %30, label %31, label %117

31:                                               ; preds = %26
  %32 = load ptr, ptr %4, align 8, !tbaa !19
  %33 = call i32 @EVP_PKEY_CTX_set_kem_op(ptr noundef %32, ptr noundef @.str.89)
  %34 = call i32 @test_int_eq(ptr noundef @.str.24, i32 noundef 585, ptr noundef @.str.88, ptr noundef @.str.50, i32 noundef %33, i32 noundef 1)
  %35 = icmp ne i32 %34, 0
  br i1 %35, label %36, label %117

36:                                               ; preds = %31
  %37 = load ptr, ptr %4, align 8, !tbaa !19
  %38 = call ptr @EVP_PKEY_CTX_dup(ptr noundef %37)
  store ptr %38, ptr %6, align 8, !tbaa !19
  %39 = call i32 @test_ptr(ptr noundef @.str.24, i32 noundef 586, ptr noundef @.str.90, ptr noundef %38)
  %40 = icmp ne i32 %39, 0
  br i1 %40, label %41, label %117

41:                                               ; preds = %36
  %42 = load ptr, ptr %6, align 8, !tbaa !19
  %43 = call i32 @EVP_PKEY_encapsulate(ptr noundef %42, ptr noundef null, ptr noundef null, ptr noundef null, ptr noundef null)
  %44 = call i32 @test_int_eq(ptr noundef @.str.24, i32 noundef 588, ptr noundef @.str.91, ptr noundef @.str.34, i32 noundef %43, i32 noundef 0)
  %45 = icmp ne i32 %44, 0
  br i1 %45, label %46, label %117

46:                                               ; preds = %41
  %47 = load ptr, ptr %6, align 8, !tbaa !19
  %48 = call i32 @EVP_PKEY_encapsulate(ptr noundef %47, ptr noundef null, ptr noundef %10, ptr noundef null, ptr noundef %12)
  %49 = call i32 @test_int_eq(ptr noundef @.str.24, i32 noundef 590, ptr noundef @.str.92, ptr noundef @.str.50, i32 noundef %48, i32 noundef 1)
  %50 = icmp ne i32 %49, 0
  br i1 %50, label %51, label %117

51:                                               ; preds = %46
  %52 = load i64, ptr %10, align 8, !tbaa !36
  %53 = trunc i64 %52 to i32
  %54 = load i64, ptr %12, align 8, !tbaa !36
  %55 = trunc i64 %54 to i32
  %56 = call i32 @test_int_eq(ptr noundef @.str.24, i32 noundef 591, ptr noundef @.str.93, ptr noundef @.str.94, i32 noundef %53, i32 noundef %55)
  %57 = icmp ne i32 %56, 0
  br i1 %57, label %58, label %117

58:                                               ; preds = %51
  %59 = load i64, ptr %10, align 8, !tbaa !36
  %60 = trunc i64 %59 to i32
  %61 = load i32, ptr %13, align 4, !tbaa !9
  %62 = sdiv i32 %61, 8
  %63 = call i32 @test_int_eq(ptr noundef @.str.24, i32 noundef 592, ptr noundef @.str.93, ptr noundef @.str.95, i32 noundef %60, i32 noundef %62)
  %64 = icmp ne i32 %63, 0
  br i1 %64, label %65, label %117

65:                                               ; preds = %58
  %66 = load ptr, ptr %6, align 8, !tbaa !19
  %67 = getelementptr inbounds [256 x i8], ptr %8, i64 0, i64 0
  %68 = getelementptr inbounds [256 x i8], ptr %7, i64 0, i64 0
  %69 = call i32 @EVP_PKEY_encapsulate(ptr noundef %66, ptr noundef %67, ptr noundef %10, ptr noundef %68, ptr noundef %12)
  %70 = call i32 @test_int_eq(ptr noundef @.str.24, i32 noundef 594, ptr noundef @.str.96, ptr noundef @.str.50, i32 noundef %69, i32 noundef 1)
  %71 = icmp ne i32 %70, 0
  br i1 %71, label %72, label %117

72:                                               ; preds = %65
  %73 = load ptr, ptr @libctx, align 8, !tbaa !13
  %74 = load ptr, ptr %3, align 8, !tbaa !21
  %75 = call ptr @EVP_PKEY_CTX_new_from_pkey(ptr noundef %73, ptr noundef %74, ptr noundef null)
  store ptr %75, ptr %5, align 8, !tbaa !19
  %76 = call i32 @test_ptr(ptr noundef @.str.24, i32 noundef 595, ptr noundef @.str.97, ptr noundef %75)
  %77 = icmp ne i32 %76, 0
  br i1 %77, label %78, label %117

78:                                               ; preds = %72
  %79 = load ptr, ptr %5, align 8, !tbaa !19
  %80 = call i32 @EVP_PKEY_decapsulate_init(ptr noundef %79, ptr noundef null)
  %81 = call i32 @test_int_eq(ptr noundef @.str.24, i32 noundef 596, ptr noundef @.str.98, ptr noundef @.str.50, i32 noundef %80, i32 noundef 1)
  %82 = icmp ne i32 %81, 0
  br i1 %82, label %83, label %117

83:                                               ; preds = %78
  %84 = load ptr, ptr %5, align 8, !tbaa !19
  %85 = call i32 @EVP_PKEY_CTX_set_kem_op(ptr noundef %84, ptr noundef @.str.89)
  %86 = call i32 @test_int_eq(ptr noundef @.str.24, i32 noundef 597, ptr noundef @.str.99, ptr noundef @.str.50, i32 noundef %85, i32 noundef 1)
  %87 = icmp ne i32 %86, 0
  br i1 %87, label %88, label %117

88:                                               ; preds = %83
  %89 = load ptr, ptr %5, align 8, !tbaa !19
  %90 = getelementptr inbounds [256 x i8], ptr %8, i64 0, i64 0
  %91 = load i64, ptr %10, align 8, !tbaa !36
  %92 = call i32 @EVP_PKEY_decapsulate(ptr noundef %89, ptr noundef null, ptr noundef null, ptr noundef %90, i64 noundef %91)
  %93 = call i32 @test_int_eq(ptr noundef @.str.24, i32 noundef 599, ptr noundef @.str.100, ptr noundef @.str.34, i32 noundef %92, i32 noundef 0)
  %94 = icmp ne i32 %93, 0
  br i1 %94, label %95, label %117

95:                                               ; preds = %88
  %96 = load ptr, ptr %5, align 8, !tbaa !19
  %97 = getelementptr inbounds [256 x i8], ptr %8, i64 0, i64 0
  %98 = load i64, ptr %10, align 8, !tbaa !36
  %99 = call i32 @EVP_PKEY_decapsulate(ptr noundef %96, ptr noundef null, ptr noundef %11, ptr noundef %97, i64 noundef %98)
  %100 = call i32 @test_int_eq(ptr noundef @.str.24, i32 noundef 601, ptr noundef @.str.101, ptr noundef @.str.50, i32 noundef %99, i32 noundef 1)
  %101 = icmp ne i32 %100, 0
  br i1 %101, label %102, label %117

102:                                              ; preds = %95
  %103 = load ptr, ptr %5, align 8, !tbaa !19
  %104 = getelementptr inbounds [256 x i8], ptr %9, i64 0, i64 0
  %105 = getelementptr inbounds [256 x i8], ptr %8, i64 0, i64 0
  %106 = load i64, ptr %10, align 8, !tbaa !36
  %107 = call i32 @EVP_PKEY_decapsulate(ptr noundef %103, ptr noundef %104, ptr noundef %11, ptr noundef %105, i64 noundef %106)
  %108 = call i32 @test_int_eq(ptr noundef @.str.24, i32 noundef 603, ptr noundef @.str.102, ptr noundef @.str.50, i32 noundef %107, i32 noundef 1)
  %109 = icmp ne i32 %108, 0
  br i1 %109, label %110, label %117

110:                                              ; preds = %102
  %111 = getelementptr inbounds [256 x i8], ptr %9, i64 0, i64 0
  %112 = load i64, ptr %11, align 8, !tbaa !36
  %113 = getelementptr inbounds [256 x i8], ptr %7, i64 0, i64 0
  %114 = load i64, ptr %12, align 8, !tbaa !36
  %115 = call i32 @test_mem_eq(ptr noundef @.str.24, i32 noundef 604, ptr noundef @.str.103, ptr noundef @.str.104, ptr noundef %111, i64 noundef %112, ptr noundef %113, i64 noundef %114)
  %116 = icmp ne i32 %115, 0
  br label %117

117:                                              ; preds = %110, %102, %95, %88, %83, %78, %72, %65, %58, %51, %46, %41, %36, %31, %26, %20, %0
  %118 = phi i1 [ false, %102 ], [ false, %95 ], [ false, %88 ], [ false, %83 ], [ false, %78 ], [ false, %72 ], [ false, %65 ], [ false, %58 ], [ false, %51 ], [ false, %46 ], [ false, %41 ], [ false, %36 ], [ false, %31 ], [ false, %26 ], [ false, %20 ], [ false, %0 ], [ %116, %110 ]
  %119 = zext i1 %118 to i32
  store i32 %119, ptr %1, align 4, !tbaa !9
  %120 = load ptr, ptr @libctx, align 8, !tbaa !13
  %121 = call i32 @fips_provider_version_match(ptr noundef %120, ptr noundef @.str.105)
  %122 = icmp ne i32 %121, 0
  br i1 %122, label %123, label %141

123:                                              ; preds = %117
  store i64 1, ptr %10, align 8, !tbaa !36
  %124 = load ptr, ptr %6, align 8, !tbaa !19
  %125 = getelementptr inbounds [256 x i8], ptr %8, i64 0, i64 0
  %126 = getelementptr inbounds [256 x i8], ptr %7, i64 0, i64 0
  %127 = call i32 @EVP_PKEY_encapsulate(ptr noundef %124, ptr noundef %125, ptr noundef %10, ptr noundef %126, ptr noundef %12)
  %128 = call i32 @test_int_eq(ptr noundef @.str.24, i32 noundef 610, ptr noundef @.str.96, ptr noundef @.str.34, i32 noundef %127, i32 noundef 0)
  %129 = icmp ne i32 %128, 0
  br i1 %129, label %131, label %130

130:                                              ; preds = %123
  store i32 0, ptr %1, align 4, !tbaa !9
  br label %131

131:                                              ; preds = %130, %123
  store i64 1, ptr %11, align 8, !tbaa !36
  %132 = load ptr, ptr %5, align 8, !tbaa !19
  %133 = getelementptr inbounds [256 x i8], ptr %9, i64 0, i64 0
  %134 = getelementptr inbounds [256 x i8], ptr %8, i64 0, i64 0
  %135 = load i64, ptr %10, align 8, !tbaa !36
  %136 = call i32 @EVP_PKEY_decapsulate(ptr noundef %132, ptr noundef %133, ptr noundef %11, ptr noundef %134, i64 noundef %135)
  %137 = call i32 @test_int_eq(ptr noundef @.str.24, i32 noundef 614, ptr noundef @.str.102, ptr noundef @.str.34, i32 noundef %136, i32 noundef 0)
  %138 = icmp ne i32 %137, 0
  br i1 %138, label %140, label %139

139:                                              ; preds = %131
  store i32 0, ptr %1, align 4, !tbaa !9
  br label %140

140:                                              ; preds = %139, %131
  br label %141

141:                                              ; preds = %140, %117
  %142 = load ptr, ptr %2, align 8, !tbaa !21
  call void @EVP_PKEY_free(ptr noundef %142)
  %143 = load ptr, ptr %3, align 8, !tbaa !21
  call void @EVP_PKEY_free(ptr noundef %143)
  %144 = load ptr, ptr %5, align 8, !tbaa !19
  call void @EVP_PKEY_CTX_free(ptr noundef %144)
  %145 = load ptr, ptr %6, align 8, !tbaa !19
  call void @EVP_PKEY_CTX_free(ptr noundef %145)
  %146 = load ptr, ptr %4, align 8, !tbaa !19
  call void @EVP_PKEY_CTX_free(ptr noundef %146)
  %147 = load i32, ptr %1, align 4, !tbaa !9
  call void @llvm.lifetime.end.p0(i64 4, ptr %13) #7
  call void @llvm.lifetime.end.p0(i64 8, ptr %12) #7
  call void @llvm.lifetime.end.p0(i64 8, ptr %11) #7
  call void @llvm.lifetime.end.p0(i64 8, ptr %10) #7
  call void @llvm.lifetime.end.p0(i64 256, ptr %9) #7
  call void @llvm.lifetime.end.p0(i64 256, ptr %8) #7
  call void @llvm.lifetime.end.p0(i64 256, ptr %7) #7
  call void @llvm.lifetime.end.p0(i64 8, ptr %6) #7
  call void @llvm.lifetime.end.p0(i64 8, ptr %5) #7
  call void @llvm.lifetime.end.p0(i64 8, ptr %4) #7
  call void @llvm.lifetime.end.p0(i64 8, ptr %3) #7
  call void @llvm.lifetime.end.p0(i64 8, ptr %2) #7
  call void @llvm.lifetime.end.p0(i64 4, ptr %1) #7
  ret i32 %147
}