; Function Attrs: nounwind uwtable
define internal range(i32 0, 2) i32 @kem_rsa_gen_recover() #1 {
  %1 = alloca ptr, align 8
  %2 = alloca ptr, align 8
  %3 = alloca [256 x i8], align 16
  %4 = alloca [256 x i8], align 16
  %5 = alloca [256 x i8], align 16
  %6 = alloca i64, align 8
  %7 = alloca i64, align 8
  %8 = alloca i64, align 8
  call void @llvm.lifetime.start.p0(i64 8, ptr nonnull %1) #7
  store ptr null, ptr %1, align 8, !tbaa !13
  call void @llvm.lifetime.start.p0(i64 8, ptr nonnull %2) #7
  call void @llvm.lifetime.start.p0(i64 256, ptr nonnull %3) #7
  call void @llvm.memset.p0.i64(ptr noundef nonnull align 16 dereferenceable(256) %3, i8 0, i64 256, i1 false)
  call void @llvm.lifetime.start.p0(i64 256, ptr nonnull %4) #7
  call void @llvm.memset.p0.i64(ptr noundef nonnull align 16 dereferenceable(256) %4, i8 0, i64 256, i1 false)
  call void @llvm.lifetime.start.p0(i64 256, ptr nonnull %5) #7
  call void @llvm.memset.p0.i64(ptr noundef nonnull align 16 dereferenceable(256) %5, i8 0, i64 256, i1 false)
  call void @llvm.lifetime.start.p0(i64 8, ptr nonnull %6) #7
  store i64 0, ptr %6, align 8, !tbaa !23
  call void @llvm.lifetime.start.p0(i64 8, ptr nonnull %7) #7
  store i64 0, ptr %7, align 8, !tbaa !23
  call void @llvm.lifetime.start.p0(i64 8, ptr nonnull %8) #7
  store i64 0, ptr %8, align 8, !tbaa !23
  %9 = call fastcc i32 @rsa_keygen(ptr noundef %1, ptr noundef %2)
  %10 = call i32 @test_true(ptr noundef nonnull @.str.24, i32 noundef 582, ptr noundef nonnull @.str.85, i32 noundef %9) #7
  %.not = icmp eq i32 %10, 0
  br i1 %.not, label %73, label %11

11:                                               ; preds = %0
  %12 = load ptr, ptr @libctx, align 8, !tbaa !6
  %13 = load ptr, ptr %1, align 8, !tbaa !13
  %14 = call ptr @EVP_PKEY_CTX_new_from_pkey(ptr noundef %12, ptr noundef %13, ptr noundef null) #7
  %15 = call i32 @test_ptr(ptr noundef nonnull @.str.24, i32 noundef 583, ptr noundef nonnull @.str.86, ptr noundef %14) #7
  %.not21 = icmp eq i32 %15, 0
  br i1 %.not21, label %73, label %16

16:                                               ; preds = %11
  %17 = call i32 @EVP_PKEY_encapsulate_init(ptr noundef %14, ptr noundef null) #7
  %18 = call i32 @test_int_eq(ptr noundef nonnull @.str.24, i32 noundef 584, ptr noundef nonnull @.str.87, ptr noundef nonnull @.str.50, i32 noundef %17, i32 noundef 1) #7
  %.not22 = icmp eq i32 %18, 0
  br i1 %.not22, label %73, label %19

19:                                               ; preds = %16
  %20 = call i32 @EVP_PKEY_CTX_set_kem_op(ptr noundef %14, ptr noundef nonnull @.str.89) #7
  %21 = call i32 @test_int_eq(ptr noundef nonnull @.str.24, i32 noundef 585, ptr noundef nonnull @.str.88, ptr noundef nonnull @.str.50, i32 noundef %20, i32 noundef 1) #7
  %.not23 = icmp eq i32 %21, 0
  br i1 %.not23, label %73, label %22

22:                                               ; preds = %19
  %23 = call ptr @EVP_PKEY_CTX_dup(ptr noundef %14) #7
  %24 = call i32 @test_ptr(ptr noundef nonnull @.str.24, i32 noundef 586, ptr noundef nonnull @.str.90, ptr noundef %23) #7
  %.not24 = icmp eq i32 %24, 0
  br i1 %.not24, label %73, label %25

25:                                               ; preds = %22
  %26 = call i32 @EVP_PKEY_encapsulate(ptr noundef %23, ptr noundef null, ptr noundef null, ptr noundef null, ptr noundef null) #7
  %27 = call i32 @test_int_eq(ptr noundef nonnull @.str.24, i32 noundef 588, ptr noundef nonnull @.str.91, ptr noundef nonnull @.str.34, i32 noundef %26, i32 noundef 0) #7
  %.not25 = icmp eq i32 %27, 0
  br i1 %.not25, label %73, label %28

28:                                               ; preds = %25
  %29 = call i32 @EVP_PKEY_encapsulate(ptr noundef %23, ptr noundef null, ptr noundef nonnull %6, ptr noundef null, ptr noundef nonnull %8) #7
  %30 = call i32 @test_int_eq(ptr noundef nonnull @.str.24, i32 noundef 590, ptr noundef nonnull @.str.92, ptr noundef nonnull @.str.50, i32 noundef %29, i32 noundef 1) #7
  %.not26 = icmp eq i32 %30, 0
  br i1 %.not26, label %73, label %31

31:                                               ; preds = %28
  %32 = load i64, ptr %6, align 8, !tbaa !23
  %33 = trunc i64 %32 to i32
  %34 = load i64, ptr %8, align 8, !tbaa !23
  %35 = trunc i64 %34 to i32
  %36 = call i32 @test_int_eq(ptr noundef nonnull @.str.24, i32 noundef 591, ptr noundef nonnull @.str.93, ptr noundef nonnull @.str.94, i32 noundef %33, i32 noundef %35) #7
  %.not27 = icmp eq i32 %36, 0
  br i1 %.not27, label %73, label %37

37:                                               ; preds = %31
  %38 = load i64, ptr %6, align 8, !tbaa !23
  %39 = trunc i64 %38 to i32
  %40 = call i32 @test_int_eq(ptr noundef nonnull @.str.24, i32 noundef 592, ptr noundef nonnull @.str.93, ptr noundef nonnull @.str.95, i32 noundef %39, i32 noundef 256) #7
  %.not28 = icmp eq i32 %40, 0
  br i1 %.not28, label %73, label %41

41:                                               ; preds = %37
  %42 = call i32 @EVP_PKEY_encapsulate(ptr noundef %23, ptr noundef nonnull %4, ptr noundef nonnull %6, ptr noundef nonnull %3, ptr noundef nonnull %8) #7
  %43 = call i32 @test_int_eq(ptr noundef nonnull @.str.24, i32 noundef 594, ptr noundef nonnull @.str.96, ptr noundef nonnull @.str.50, i32 noundef %42, i32 noundef 1) #7
  %.not29 = icmp eq i32 %43, 0
  br i1 %.not29, label %73, label %44

44:                                               ; preds = %41
  %45 = load ptr, ptr @libctx, align 8, !tbaa !6
  %46 = load ptr, ptr %2, align 8, !tbaa !13
  %47 = call ptr @EVP_PKEY_CTX_new_from_pkey(ptr noundef %45, ptr noundef %46, ptr noundef null) #7
  %48 = call i32 @test_ptr(ptr noundef nonnull @.str.24, i32 noundef 595, ptr noundef nonnull @.str.97, ptr noundef %47) #7
  %.not30 = icmp eq i32 %48, 0
  br i1 %.not30, label %73, label %49

49:                                               ; preds = %44
  %50 = call i32 @EVP_PKEY_decapsulate_init(ptr noundef %47, ptr noundef null) #7
  %51 = call i32 @test_int_eq(ptr noundef nonnull @.str.24, i32 noundef 596, ptr noundef nonnull @.str.98, ptr noundef nonnull @.str.50, i32 noundef %50, i32 noundef 1) #7
  %.not31 = icmp eq i32 %51, 0
  br i1 %.not31, label %73, label %52

52:                                               ; preds = %49
  %53 = call i32 @EVP_PKEY_CTX_set_kem_op(ptr noundef %47, ptr noundef nonnull @.str.89) #7
  %54 = call i32 @test_int_eq(ptr noundef nonnull @.str.24, i32 noundef 597, ptr noundef nonnull @.str.99, ptr noundef nonnull @.str.50, i32 noundef %53, i32 noundef 1) #7
  %.not32 = icmp eq i32 %54, 0
  br i1 %.not32, label %73, label %55

55:                                               ; preds = %52
  %56 = load i64, ptr %6, align 8, !tbaa !23
  %57 = call i32 @EVP_PKEY_decapsulate(ptr noundef %47, ptr noundef null, ptr noundef null, ptr noundef nonnull %4, i64 noundef %56) #7
  %58 = call i32 @test_int_eq(ptr noundef nonnull @.str.24, i32 noundef 599, ptr noundef nonnull @.str.100, ptr noundef nonnull @.str.34, i32 noundef %57, i32 noundef 0) #7
  %.not33 = icmp eq i32 %58, 0
  br i1 %.not33, label %73, label %59

59:                                               ; preds = %55
  %60 = load i64, ptr %6, align 8, !tbaa !23
  %61 = call i32 @EVP_PKEY_decapsulate(ptr noundef %47, ptr noundef null, ptr noundef nonnull %7, ptr noundef nonnull %4, i64 noundef %60) #7
  %62 = call i32 @test_int_eq(ptr noundef nonnull @.str.24, i32 noundef 601, ptr noundef nonnull @.str.101, ptr noundef nonnull @.str.50, i32 noundef %61, i32 noundef 1) #7
  %.not34 = icmp eq i32 %62, 0
  br i1 %.not34, label %73, label %63

63:                                               ; preds = %59
  %64 = load i64, ptr %6, align 8, !tbaa !23
  %65 = call i32 @EVP_PKEY_decapsulate(ptr noundef %47, ptr noundef nonnull %5, ptr noundef nonnull %7, ptr noundef nonnull %4, i64 noundef %64) #7
  %66 = call i32 @test_int_eq(ptr noundef nonnull @.str.24, i32 noundef 603, ptr noundef nonnull @.str.102, ptr noundef nonnull @.str.50, i32 noundef %65, i32 noundef 1) #7
  %.not35 = icmp eq i32 %66, 0
  br i1 %.not35, label %73, label %67

67:                                               ; preds = %63
  %68 = load i64, ptr %7, align 8, !tbaa !23
  %69 = load i64, ptr %8, align 8, !tbaa !23
  %70 = call i32 @test_mem_eq(ptr noundef nonnull @.str.24, i32 noundef 604, ptr noundef nonnull @.str.103, ptr noundef nonnull @.str.104, ptr noundef nonnull %5, i64 noundef %68, ptr noundef nonnull %3, i64 noundef %69) #7
  %71 = icmp ne i32 %70, 0
  %72 = zext i1 %71 to i32
  br label %73

73:                                               ; preds = %67, %63, %59, %55, %52, %49, %44, %41, %37, %31, %28, %25, %22, %19, %16, %11, %0
  %.020 = phi ptr [ %14, %67 ], [ %14, %63 ], [ %14, %59 ], [ %14, %55 ], [ %14, %52 ], [ %14, %49 ], [ %14, %44 ], [ %14, %41 ], [ %14, %37 ], [ %14, %31 ], [ %14, %28 ], [ %14, %25 ], [ %14, %22 ], [ %14, %19 ], [ %14, %16 ], [ %14, %11 ], [ null, %0 ]
  %.019 = phi ptr [ %47, %67 ], [ %47, %63 ], [ %47, %59 ], [ %47, %55 ], [ %47, %52 ], [ %47, %49 ], [ %47, %44 ], [ null, %41 ], [ null, %37 ], [ null, %31 ], [ null, %28 ], [ null, %25 ], [ null, %22 ], [ null, %19 ], [ null, %16 ], [ null, %11 ], [ null, %0 ]
  %.018 = phi ptr [ %23, %67 ], [ %23, %63 ], [ %23, %59 ], [ %23, %55 ], [ %23, %52 ], [ %23, %49 ], [ %23, %44 ], [ %23, %41 ], [ %23, %37 ], [ %23, %31 ], [ %23, %28 ], [ %23, %25 ], [ %23, %22 ], [ null, %19 ], [ null, %16 ], [ null, %11 ], [ null, %0 ]
  %74 = phi i32 [ %72, %67 ], [ 0, %63 ], [ 0, %59 ], [ 0, %55 ], [ 0, %52 ], [ 0, %49 ], [ 0, %44 ], [ 0, %41 ], [ 0, %37 ], [ 0, %31 ], [ 0, %28 ], [ 0, %25 ], [ 0, %22 ], [ 0, %19 ], [ 0, %16 ], [ 0, %11 ], [ 0, %0 ]
  %75 = load ptr, ptr @libctx, align 8, !tbaa !6
  %76 = call i32 @fips_provider_version_match(ptr noundef %75, ptr noundef nonnull @.str.105) #7
  %.not36 = icmp eq i32 %76, 0
  br i1 %.not36, label %84, label %77

77:                                               ; preds = %73
  store i64 1, ptr %6, align 8, !tbaa !23
  %78 = call i32 @EVP_PKEY_encapsulate(ptr noundef %.018, ptr noundef nonnull %4, ptr noundef nonnull %6, ptr noundef nonnull %3, ptr noundef nonnull %8) #7
  %79 = call i32 @test_int_eq(ptr noundef nonnull @.str.24, i32 noundef 610, ptr noundef nonnull @.str.96, ptr noundef nonnull @.str.34, i32 noundef %78, i32 noundef 0) #7
  %.not37 = icmp eq i32 %79, 0
  store i64 1, ptr %7, align 8, !tbaa !23
  %80 = load i64, ptr %6, align 8, !tbaa !23
  %81 = call i32 @EVP_PKEY_decapsulate(ptr noundef %.019, ptr noundef nonnull %5, ptr noundef nonnull %7, ptr noundef nonnull %4, i64 noundef %80) #7
  %82 = call i32 @test_int_eq(ptr noundef nonnull @.str.24, i32 noundef 614, ptr noundef nonnull @.str.102, ptr noundef nonnull @.str.34, i32 noundef %81, i32 noundef 0) #7
  %.not38 = icmp eq i32 %82, 0
  %83 = select i1 %.not38, i1 true, i1 %.not37
  %spec.select39 = select i1 %83, i32 0, i32 %74
  br label %84

84:                                               ; preds = %77, %73
  %.0 = phi i32 [ %74, %73 ], [ %spec.select39, %77 ]
  %85 = load ptr, ptr %1, align 8, !tbaa !13
  call void @EVP_PKEY_free(ptr noundef %85) #7
  %86 = load ptr, ptr %2, align 8, !tbaa !13
  call void @EVP_PKEY_free(ptr noundef %86) #7
  call void @EVP_PKEY_CTX_free(ptr noundef %.019) #7
  call void @EVP_PKEY_CTX_free(ptr noundef %.018) #7
  call void @EVP_PKEY_CTX_free(ptr noundef %.020) #7
  call void @llvm.lifetime.end.p0(i64 8, ptr nonnull %8) #7
  call void @llvm.lifetime.end.p0(i64 8, ptr nonnull %7) #7
  call void @llvm.lifetime.end.p0(i64 8, ptr nonnull %6) #7
  call void @llvm.lifetime.end.p0(i64 256, ptr nonnull %5) #7
  call void @llvm.lifetime.end.p0(i64 256, ptr nonnull %4) #7
  call void @llvm.lifetime.end.p0(i64 256, ptr nonnull %3) #7
  call void @llvm.lifetime.end.p0(i64 8, ptr nonnull %2) #7
  call void @llvm.lifetime.end.p0(i64 8, ptr nonnull %1) #7
  ret i32 %.0
}